target datalayout = "e-m:e-p270:32:32-p271:32:32-p272:64:64-i64:64-i128:128-f80:128-n8:16:32:64-S128"
target triple = "x86_64-pc-linux-gnu"

%"class.llvm::VersionTuple" = type { i64, i64 }
%"class.llvm::MachObjectWriter" = type { %"class.llvm::MCObjectWriter", %"class.std::unique_ptr", %"class.llvm::DenseMap", %"class.std::vector.10", %"class.llvm::DenseMap.15", %"class.std::vector.18", %"class.llvm::DenseMap.23", %"class.llvm::SmallVector.26", %"class.llvm::StringTableBuilder", %"class.std::vector.34", %"class.std::vector.34", %"class.std::vector.34", %"class.llvm::MCLOHContainer", %"struct.llvm::MachObjectWriter::VersionInfoType", %"struct.llvm::MachObjectWriter::VersionInfoType", %"class.std::vector.45", %"struct.llvm::support::endian::Writer" }
%"class.llvm::MCObjectWriter" = type { ptr, %"class.llvm::SmallVector", %"class.std::__cxx11::basic_string", %"class.std::vector", i8, i8, %"class.llvm::SmallVector.3" }
%"class.llvm::SmallVector" = type { %"class.llvm::SmallVectorImpl" }
%"class.llvm::SmallVectorImpl" = type { %"class.llvm::SmallVectorTemplateBase" }
%"class.llvm::SmallVectorTemplateBase" = type { %"class.llvm::SmallVectorTemplateCommon" }
%"class.llvm::SmallVectorTemplateCommon" = type { %"class.llvm::SmallVectorBase" }
%"class.llvm::SmallVectorBase" = type { ptr, i32, i32 }
%"class.std::__cxx11::basic_string" = type { %"struct.std::__cxx11::basic_string<char>::_Alloc_hider", i64, %union.anon }
%"struct.std::__cxx11::basic_string<char>::_Alloc_hider" = type { ptr }
%union.anon = type { i64, [8 x i8] }
%"class.std::vector" = type { %"struct.std::_Vector_base" }
%"struct.std::_Vector_base" = type { %"struct.std::_Vector_base<const llvm::MCSymbol *, std::allocator<const llvm::MCSymbol *>>::_Vector_impl" }
%"struct.std::_Vector_base<const llvm::MCSymbol *, std::allocator<const llvm::MCSymbol *>>::_Vector_impl" = type { %"struct.std::_Vector_base<const llvm::MCSymbol *, std::allocator<const llvm::MCSymbol *>>::_Vector_impl_data" }
%"struct.std::_Vector_base<const llvm::MCSymbol *, std::allocator<const llvm::MCSymbol *>>::_Vector_impl_data" = type { ptr, ptr, ptr }
%"class.llvm::SmallVector.3" = type { %"class.llvm::SmallVectorImpl.4" }
%"class.llvm::SmallVectorImpl.4" = type { %"class.llvm::SmallVectorTemplateBase.5" }
%"class.llvm::SmallVectorTemplateBase.5" = type { %"class.llvm::SmallVectorTemplateCommon.6" }
%"class.llvm::SmallVectorTemplateCommon.6" = type { %"class.llvm::SmallVectorBase" }
%"class.std::unique_ptr" = type { %"struct.std::__uniq_ptr_data" }
%"struct.std::__uniq_ptr_data" = type { %"class.std::__uniq_ptr_impl" }
%"class.std::__uniq_ptr_impl" = type { %"class.std::tuple" }
%"class.std::tuple" = type { %"struct.std::_Tuple_impl" }
%"struct.std::_Tuple_impl" = type { %"struct.std::_Head_base.9" }
%"struct.std::_Head_base.9" = type { ptr }
%"class.llvm::DenseMap" = type <{ ptr, i32, i32, i32, [4 x i8] }>
%"class.std::vector.10" = type { %"struct.std::_Vector_base.11" }
%"struct.std::_Vector_base.11" = type { %"struct.std::_Vector_base<llvm::MachObjectWriter::IndirectSymbolData, std::allocator<llvm::MachObjectWriter::IndirectSymbolData>>::_Vector_impl" }
%"struct.std::_Vector_base<llvm::MachObjectWriter::IndirectSymbolData, std::allocator<llvm::MachObjectWriter::IndirectSymbolData>>::_Vector_impl" = type { %"struct.std::_Vector_base<llvm::MachObjectWriter::IndirectSymbolData, std::allocator<llvm::MachObjectWriter::IndirectSymbolData>>::_Vector_impl_data" }
%"struct.std::_Vector_base<llvm::MachObjectWriter::IndirectSymbolData, std::allocator<llvm::MachObjectWriter::IndirectSymbolData>>::_Vector_impl_data" = type { ptr, ptr, ptr }
%"class.llvm::DenseMap.15" = type <{ ptr, i32, i32, i32, [4 x i8] }>
%"class.std::vector.18" = type { %"struct.std::_Vector_base.19" }
%"struct.std::_Vector_base.19" = type { %"struct.std::_Vector_base<llvm::MachObjectWriter::DataRegionData, std::allocator<llvm::MachObjectWriter::DataRegionData>>::_Vector_impl" }
%"struct.std::_Vector_base<llvm::MachObjectWriter::DataRegionData, std::allocator<llvm::MachObjectWriter::DataRegionData>>::_Vector_impl" = type { %"struct.std::_Vector_base<llvm::MachObjectWriter::DataRegionData, std::allocator<llvm::MachObjectWriter::DataRegionData>>::_Vector_impl_data" }
%"struct.std::_Vector_base<llvm::MachObjectWriter::DataRegionData, std::allocator<llvm::MachObjectWriter::DataRegionData>>::_Vector_impl_data" = type { ptr, ptr, ptr }
%"class.llvm::DenseMap.23" = type <{ ptr, i32, i32, i32, [4 x i8] }>
%"class.llvm::SmallVector.26" = type { %"class.llvm::SmallVectorImpl.27" }
%"class.llvm::SmallVectorImpl.27" = type { %"class.llvm::SmallVectorTemplateBase.28" }
%"class.llvm::SmallVectorTemplateBase.28" = type { %"class.llvm::SmallVectorTemplateCommon.29" }
%"class.llvm::SmallVectorTemplateCommon.29" = type { %"class.llvm::SmallVectorBase" }
%"class.llvm::StringTableBuilder" = type <{ %"class.llvm::DenseMap.31", i64, i32, %"struct.llvm::Align", i8, [2 x i8] }>
%"class.llvm::DenseMap.31" = type <{ ptr, i32, i32, i32, [4 x i8] }>
%"struct.llvm::Align" = type { i8 }
%"class.std::vector.34" = type { %"struct.std::_Vector_base.35" }
%"struct.std::_Vector_base.35" = type { %"struct.std::_Vector_base<llvm::MachObjectWriter::MachSymbolData, std::allocator<llvm::MachObjectWriter::MachSymbolData>>::_Vector_impl" }
%"struct.std::_Vector_base<llvm::MachObjectWriter::MachSymbolData, std::allocator<llvm::MachObjectWriter::MachSymbolData>>::_Vector_impl" = type { %"struct.std::_Vector_base<llvm::MachObjectWriter::MachSymbolData, std::allocator<llvm::MachObjectWriter::MachSymbolData>>::_Vector_impl_data" }
%"struct.std::_Vector_base<llvm::MachObjectWriter::MachSymbolData, std::allocator<llvm::MachObjectWriter::MachSymbolData>>::_Vector_impl_data" = type { ptr, ptr, ptr }
%"class.llvm::MCLOHContainer" = type { i64, %"class.llvm::SmallVector.39" }
%"class.llvm::SmallVector.39" = type { %"class.llvm::SmallVectorImpl.40", %"struct.llvm::SmallVectorStorage.43" }
%"class.llvm::SmallVectorImpl.40" = type { %"class.llvm::SmallVectorTemplateBase.41" }
%"class.llvm::SmallVectorTemplateBase.41" = type { %"class.llvm::SmallVectorTemplateCommon.42" }
%"class.llvm::SmallVectorTemplateCommon.42" = type { %"class.llvm::SmallVectorBase" }
%"struct.llvm::SmallVectorStorage.43" = type { [1536 x i8] }
%"struct.llvm::MachObjectWriter::VersionInfoType" = type <{ i8, [3 x i8], %union.anon.44, i32, i32, i32, %"class.llvm::VersionTuple" }>
%union.anon.44 = type { i32 }
%"class.std::vector.45" = type { %"struct.std::_Vector_base.46" }
%"struct.std::_Vector_base.46" = type { %"struct.std::_Vector_base<std::vector<std::__cxx11::basic_string<char>>, std::allocator<std::vector<std::__cxx11::basic_string<char>>>>::_Vector_impl" }
%"struct.std::_Vector_base<std::vector<std::__cxx11::basic_string<char>>, std::allocator<std::vector<std::__cxx11::basic_string<char>>>>::_Vector_impl" = type { %"struct.std::_Vector_base<std::vector<std::__cxx11::basic_string<char>>, std::allocator<std::vector<std::__cxx11::basic_string<char>>>>::_Vector_impl_data" }
%"struct.std::_Vector_base<std::vector<std::__cxx11::basic_string<char>>, std::allocator<std::vector<std::__cxx11::basic_string<char>>>>::_Vector_impl_data" = type { ptr, ptr, ptr }
%"struct.llvm::support::endian::Writer" = type <{ ptr, i32, [4 x i8] }>
%"class.llvm::raw_ostream" = type { ptr, i32, ptr, ptr, ptr, i8, i32 }

; Function Attrs: mustprogress nounwind uwtable
define linkonce_odr hidden noundef i32 @_ZN4llvm8byteswapIjvEET_S1_(i32 noundef %0) #0 comdat {
  %2 = alloca i32, align 4
  %3 = alloca i32, align 4
  store i32 %0, ptr %2, align 4
  %4 = load i32, ptr %2, align 4
  store i32 %4, ptr %3, align 4
  %5 = load i32, ptr %3, align 4
  %6 = call i32 @llvm.bswap.i32(i32 %5)
  ret i32 %6
}

; Function Attrs: mustprogress nounwind uwtable
define linkonce_odr hidden noundef i32 @_ZN4llvm3sys15getSwappedBytesEj(i32 noundef %0) #0 comdat {
  %2 = alloca i32, align 4
  store i32 %0, ptr %2, align 4
  %3 = load i32, ptr %2, align 4
  %4 = call noundef i32 @_ZN4llvm8byteswapIjvEET_S1_(i32 noundef %3) #10
  ret i32 %4
}

; Function Attrs: mustprogress nounwind uwtable
define linkonce_odr hidden void @_ZN4llvm3sys13swapByteOrderIjEEvRT_(ptr noundef nonnull align 4 dereferenceable(4) %0) #0 comdat {
  %2 = alloca ptr, align 8
  store ptr %0, ptr %2, align 8
  %3 = load ptr, ptr %2, align 8
  %4 = load i32, ptr %3, align 4
  %5 = call noundef i32 @_ZN4llvm3sys15getSwappedBytesEj(i32 noundef %4)
  %6 = load ptr, ptr %2, align 8
  store i32 %5, ptr %6, align 4
  ret void
}

; Function Attrs: mustprogress nounwind uwtable
define linkonce_odr hidden noundef i32 @_ZN4llvm7support6endian9byte_swapIjEET_S3_NS_10endiannessE(i32 noundef %0, i32 noundef %1) #0 comdat {
  %3 = alloca i32, align 4
  %4 = alloca i32, align 4
  store i32 %0, ptr %3, align 4
  store i32 %1, ptr %4, align 4
  %5 = load i32, ptr %4, align 4
  %6 = icmp ne i32 %5, 1
  br i1 %6, label %7, label %8

7:                                                ; preds = %2
  call void @_ZN4llvm3sys13swapByteOrderIjEEvRT_(ptr noundef nonnull align 4 dereferenceable(4) %3)
  br label %8

8:                                                ; preds = %7, %2
  %9 = load i32, ptr %3, align 4
  ret i32 %9
}

; Function Attrs: mustprogress nounwind uwtable
define linkonce_odr hidden void @_ZN4llvm7support6endian5writeIjEEvRNS_11raw_ostreamET_NS_10endiannessE(ptr noundef nonnull align 8 dereferenceable(48) %0, i32 noundef %1, i32 noundef %2) #0 comdat {
  %4 = alloca ptr, align 8
  %5 = alloca i32, align 4
  %6 = alloca i32, align 4
  store ptr %0, ptr %4, align 8
  store i32 %1, ptr %5, align 4
  store i32 %2, ptr %6, align 4
  %7 = load i32, ptr %5, align 4
  %8 = load i32, ptr %6, align 4
  %9 = call noundef i32 @_ZN4llvm7support6endian9byte_swapIjEET_S3_NS_10endiannessE(i32 noundef %7, i32 noundef %8)
  store i32 %9, ptr %5, align 4
  %10 = load ptr, ptr %4, align 8
  %11 = call noundef nonnull align 8 dereferenceable(48) ptr @_ZN4llvm11raw_ostream5writeEPKcm(ptr noundef nonnull align 8 dereferenceable(48) %10, ptr noundef %5, i64 noundef 4)
  ret void
}

; Function Attrs: mustprogress nounwind uwtable
define linkonce_odr hidden noundef i64 @_ZNK4llvm11raw_ostream19GetNumBytesInBufferEv(ptr noundef nonnull align 8 dereferenceable(48) %0) #0 comdat align 2 {
  %2 = alloca ptr, align 8
  store ptr %0, ptr %2, align 8
  %3 = load ptr, ptr %2, align 8
  %4 = getelementptr inbounds nuw %"class.llvm::raw_ostream", ptr %3, i32 0, i32 4
  %5 = load ptr, ptr %4, align 8
  %6 = getelementptr inbounds nuw %"class.llvm::raw_ostream", ptr %3, i32 0, i32 2
  %7 = load ptr, ptr %6, align 8
  %8 = ptrtoint ptr %5 to i64
  %9 = ptrtoint ptr %7 to i64
  %10 = sub i64 %8, %9
  ret i64 %10
}

; Function Attrs: mustprogress nounwind uwtable
define linkonce_odr hidden void @_ZN4llvm7support6endian6Writer5writeIjEEvT_(ptr noundef nonnull align 8 dereferenceable(12) %0, i32 noundef %1) #0 comdat align 2 {
  %3 = alloca ptr, align 8
  %4 = alloca i32, align 4
  store ptr %0, ptr %3, align 8
  store i32 %1, ptr %4, align 4
  %5 = load ptr, ptr %3, align 8
  %6 = getelementptr inbounds nuw %"struct.llvm::support::endian::Writer", ptr %5, i32 0, i32 0
  %7 = load ptr, ptr %6, align 8
  %8 = load i32, ptr %4, align 4
  %9 = getelementptr inbounds nuw %"struct.llvm::support::endian::Writer", ptr %5, i32 0, i32 1
  %10 = load i32, ptr %9, align 8
  call void @_ZN4llvm7support6endian5writeIjEEvRNS_11raw_ostreamET_NS_10endiannessE(ptr noundef nonnull align 8 dereferenceable(48) %7, i32 noundef %8, i32 noundef %10)
  ret void
}

; Function Attrs: mustprogress nounwind uwtable
define linkonce_odr hidden noundef i64 @_ZNK4llvm11raw_ostream4tellEv(ptr noundef nonnull align 8 dereferenceable(48) %0) #0 comdat align 2 {
  %2 = alloca ptr, align 8
  store ptr %0, ptr %2, align 8
  %3 = load ptr, ptr %2, align 8
  %4 = load ptr, ptr %3, align 8
  %5 = getelementptr inbounds ptr, ptr %4, i64 10
  %6 = load ptr, ptr %5, align 8
  %7 = call noundef i64 %6(ptr noundef nonnull align 8 dereferenceable(48) %3)
  %8 = call noundef i64 @_ZNK4llvm11raw_ostream19GetNumBytesInBufferEv(ptr noundef nonnull align 8 dereferenceable(48) %3)
  %9 = add i64 %7, %8
  ret i64 %9
}

; Function Attrs: mustprogress nounwind uwtable
define dso_local void @_ZN4llvm16MachObjectWriter24writeLinkeditLoadCommandEjjj(ptr noundef nonnull align 8 dereferenceable(2032) %0, i32 noundef %1, i32 noundef %2, i32 noundef %3) #0 align 2 {
  %5 = alloca ptr, align 8
  %6 = alloca i32, align 4
  %7 = alloca i32, align 4
  %8 = alloca i32, align 4
  %9 = alloca i64, align 8
  store ptr %0, ptr %5, align 8
  store i32 %1, ptr %6, align 4
  store i32 %2, ptr %7, align 4
  store i32 %3, ptr %8, align 4
  %10 = load ptr, ptr %5, align 8
  %11 = getelementptr inbounds nuw %"class.llvm::MachObjectWriter", ptr %10, i32 0, i32 16
  %12 = getelementptr inbounds nuw %"struct.llvm::support::endian::Writer", ptr %11, i32 0, i32 0
  %13 = load ptr, ptr %12, align 8
  %14 = call noundef i64 @_ZNK4llvm11raw_ostream4tellEv(ptr noundef nonnull align 8 dereferenceable(48) %13)
  store i64 %14, ptr %9, align 8
  %15 = getelementptr inbounds nuw %"class.llvm::MachObjectWriter", ptr %10, i32 0, i32 16
  %16 = load i32, ptr %6, align 4
  call void @_ZN4llvm7support6endian6Writer5writeIjEEvT_(ptr noundef nonnull align 8 dereferenceable(12) %15, i32 noundef %16)
  %17 = getelementptr inbounds nuw %"class.llvm::MachObjectWriter", ptr %10, i32 0, i32 16
  call void @_ZN4llvm7support6endian6Writer5writeIjEEvT_(ptr noundef nonnull align 8 dereferenceable(12) %17, i32 noundef 16)
  %18 = getelementptr inbounds nuw %"class.llvm::MachObjectWriter", ptr %10, i32 0, i32 16
  %19 = load i32, ptr %7, align 4
  call void @_ZN4llvm7support6endian6Writer5writeIjEEvT_(ptr noundef nonnull align 8 dereferenceable(12) %18, i32 noundef %19)
  %20 = getelementptr inbounds nuw %"class.llvm::MachObjectWriter", ptr %10, i32 0, i32 16
  %21 = load i32, ptr %8, align 4
  call void @_ZN4llvm7support6endian6Writer5writeIjEEvT_(ptr noundef nonnull align 8 dereferenceable(12) %20, i32 noundef %21)
  ret void
}