; Function Attrs: mustprogress nounwind uwtable
define dso_local void @_ZN4llvm16MachObjectWriter24writeLinkeditLoadCommandEjjj(ptr nocapture noundef nonnull readonly align 8 dereferenceable(2032) %0, i32 noundef %1, i32 noundef %2, i32 noundef %3) local_unnamed_addr #0 align 2 {
  %5 = alloca i32, align 4
  %6 = alloca i32, align 4
  %7 = alloca i32, align 4
  %8 = alloca i32, align 4
  %9 = getelementptr inbounds nuw i8, ptr %0, i64 2016
  %10 = load ptr, ptr %9, align 8
  %11 = load ptr, ptr %10, align 8
  %12 = getelementptr inbounds i8, ptr %11, i64 80
  %13 = load ptr, ptr %12, align 8
  %14 = tail call noundef i64 %13(ptr noundef nonnull align 8 dereferenceable(48) %10) #19
  %15 = load ptr, ptr %9, align 8
  %16 = getelementptr inbounds i8, ptr %0, i64 2024
  %17 = load i32, ptr %16, align 8
  call void @llvm.lifetime.start.p0(i64 4, ptr nonnull %8)
  %.not.i.i.i = icmp eq i32 %17, 1
  %18 = tail call i32 @llvm.bswap.i32(i32 %1)
  %spec.select.i.i.i = select i1 %.not.i.i.i, i32 %1, i32 %18
  store i32 %spec.select.i.i.i, ptr %8, align 4
  %19 = call noundef nonnull align 8 dereferenceable(48) ptr @_ZN4llvm11raw_ostream5writeEPKcm(ptr noundef nonnull align 8 dereferenceable(48) %15, ptr noundef nonnull %8, i64 noundef 4) #19
  call void @llvm.lifetime.end.p0(i64 4, ptr nonnull %8)
  %20 = load ptr, ptr %9, align 8
  %21 = load i32, ptr %16, align 8
  call void @llvm.lifetime.start.p0(i64 4, ptr nonnull %7)
  %.not.i.i.i3 = icmp eq i32 %21, 1
  %spec.select.i.i.i4 = select i1 %.not.i.i.i3, i32 16, i32 268435456
  store i32 %spec.select.i.i.i4, ptr %7, align 4
  %22 = call noundef nonnull align 8 dereferenceable(48) ptr @_ZN4llvm11raw_ostream5writeEPKcm(ptr noundef nonnull align 8 dereferenceable(48) %20, ptr noundef nonnull %7, i64 noundef 4) #19
  call void @llvm.lifetime.end.p0(i64 4, ptr nonnull %7)
  %23 = load ptr, ptr %9, align 8
  %24 = load i32, ptr %16, align 8
  call void @llvm.lifetime.start.p0(i64 4, ptr nonnull %6)
  %.not.i.i.i5 = icmp eq i32 %24, 1
  %25 = call i32 @llvm.bswap.i32(i32 %2)
  %spec.select.i.i.i6 = select i1 %.not.i.i.i5, i32 %2, i32 %25
  store i32 %spec.select.i.i.i6, ptr %6, align 4
  %26 = call noundef nonnull align 8 dereferenceable(48) ptr @_ZN4llvm11raw_ostream5writeEPKcm(ptr noundef nonnull align 8 dereferenceable(48) %23, ptr noundef nonnull %6, i64 noundef 4) #19
  call void @llvm.lifetime.end.p0(i64 4, ptr nonnull %6)
  %27 = load ptr, ptr %9, align 8
  %28 = load i32, ptr %16, align 8
  call void @llvm.lifetime.start.p0(i64 4, ptr nonnull %5)
  %.not.i.i.i7 = icmp eq i32 %28, 1
  %29 = call i32 @llvm.bswap.i32(i32 %3)
  %spec.select.i.i.i8 = select i1 %.not.i.i.i7, i32 %3, i32 %29
  store i32 %spec.select.i.i.i8, ptr %5, align 4
  %30 = call noundef nonnull align 8 dereferenceable(48) ptr @_ZN4llvm11raw_ostream5writeEPKcm(ptr noundef nonnull align 8 dereferenceable(48) %27, ptr noundef nonnull %5, i64 noundef 4) #19
  call void @llvm.lifetime.end.p0(i64 4, ptr nonnull %5)
  ret void
}